target datalayout = "e-m:e-p270:32:32-p271:32:32-p272:64:64-i64:64-i128:128-f80:128-n8:16:32:64-S128"
target triple = "x86_64-pc-linux-gnu"

%struct.Shr_Man_t_ = type { ptr, ptr, i32, i32, ptr, ptr, ptr, ptr, ptr, ptr, ptr, ptr, ptr, ptr, ptr, %struct.Bdc_Par_t_ }
%struct.Bdc_Par_t_ = type { i32, i32, i32 }
%struct.Gia_Man_t_ = type { ptr, ptr, i32, i32, i32, i32, ptr, ptr, i32, i32, i32, ptr, ptr, %struct.Vec_Int_t_, %struct.Vec_Int_t_, i32, i32, i32, %struct.Vec_Int_t_, ptr, ptr, ptr, i32, i32, i32, i32, ptr, ptr, ptr, ptr, ptr, i32, i32, ptr, i32, ptr, ptr, ptr, ptr, ptr, ptr, ptr, ptr, ptr, ptr, ptr, ptr, ptr, ptr, ptr, ptr, ptr, ptr, %struct.Vec_Int_t_, %struct.Vec_Int_t_, ptr, ptr, ptr, ptr, ptr, ptr, ptr, ptr, ptr, ptr, ptr, ptr, ptr, ptr, ptr, ptr, ptr, ptr, ptr, ptr, ptr, i32, float, float, ptr, ptr, i32, ptr, ptr, ptr, ptr, ptr, ptr, ptr, ptr, ptr, ptr, ptr, ptr, ptr, ptr, ptr, i64, i64, ptr, ptr, i32, i32, i32, i32, i32, i32, i32, i32, i32, i32, i32, i32, ptr, ptr, ptr, ptr, ptr, ptr, ptr, ptr, i32, i32, i32, ptr, i32, i32, ptr, ptr, ptr, ptr, ptr, ptr, i32, i32, ptr, %struct.Vec_Int_t_, %struct.Vec_Int_t_, %struct.Vec_Int_t_, ptr, ptr, ptr, i32, i32, i32, i32, ptr, ptr, ptr, ptr, ptr }
%struct.Vec_Int_t_ = type { i32, i32, ptr }
%struct.Vec_Wrd_t_ = type { i32, i32, ptr }

@.str = private unnamed_addr constant [40 x i8] c"Node reduction after sweep %6d -> %6d.\0A\00", align 1

; Function Attrs: inlinehint nounwind uwtable
define internal i32 @Vec_IntSize(ptr noundef %0) #3 {
  %2 = alloca ptr, align 8
  store ptr %0, ptr %2, align 8, !tbaa !62
  %3 = load ptr, ptr %2, align 8, !tbaa !62
  %4 = getelementptr inbounds nuw %struct.Vec_Int_t_, ptr %3, i32 0, i32 1
  %5 = load i32, ptr %4, align 4, !tbaa !63
  ret i32 %5
}

; Function Attrs: inlinehint nounwind uwtable
define internal void @Vec_IntFree(ptr noundef %0) #3 {
  %2 = alloca ptr, align 8
  store ptr %0, ptr %2, align 8, !tbaa !62
  %3 = load ptr, ptr %2, align 8, !tbaa !62
  %4 = getelementptr inbounds nuw %struct.Vec_Int_t_, ptr %3, i32 0, i32 2
  %5 = load ptr, ptr %4, align 8, !tbaa !64
  %6 = icmp ne ptr %5, null
  br i1 %6, label %7, label %13

7:                                                ; preds = %1
  %8 = load ptr, ptr %2, align 8, !tbaa !62
  %9 = getelementptr inbounds nuw %struct.Vec_Int_t_, ptr %8, i32 0, i32 2
  %10 = load ptr, ptr %9, align 8, !tbaa !64
  call void @free(ptr noundef %10) #12
  %11 = load ptr, ptr %2, align 8, !tbaa !62
  %12 = getelementptr inbounds nuw %struct.Vec_Int_t_, ptr %11, i32 0, i32 2
  store ptr null, ptr %12, align 8, !tbaa !64
  br label %14

13:                                               ; preds = %1
  br label %14

14:                                               ; preds = %13, %7
  %15 = load ptr, ptr %2, align 8, !tbaa !62
  %16 = icmp ne ptr %15, null
  br i1 %16, label %17, label %19

17:                                               ; preds = %14
  %18 = load ptr, ptr %2, align 8, !tbaa !62
  call void @free(ptr noundef %18) #12
  store ptr null, ptr %2, align 8, !tbaa !62
  br label %20

19:                                               ; preds = %14
  br label %20

20:                                               ; preds = %19, %17
  ret void
}

; Function Attrs: inlinehint nounwind uwtable
define internal void @Vec_WrdFree(ptr noundef %0) #3 {
  %2 = alloca ptr, align 8
  store ptr %0, ptr %2, align 8, !tbaa !55
  %3 = load ptr, ptr %2, align 8, !tbaa !55
  %4 = getelementptr inbounds nuw %struct.Vec_Wrd_t_, ptr %3, i32 0, i32 2
  %5 = load ptr, ptr %4, align 8, !tbaa !60
  %6 = icmp ne ptr %5, null
  br i1 %6, label %7, label %13

7:                                                ; preds = %1
  %8 = load ptr, ptr %2, align 8, !tbaa !55
  %9 = getelementptr inbounds nuw %struct.Vec_Wrd_t_, ptr %8, i32 0, i32 2
  %10 = load ptr, ptr %9, align 8, !tbaa !60
  call void @free(ptr noundef %10) #12
  %11 = load ptr, ptr %2, align 8, !tbaa !55
  %12 = getelementptr inbounds nuw %struct.Vec_Wrd_t_, ptr %11, i32 0, i32 2
  store ptr null, ptr %12, align 8, !tbaa !60
  br label %14

13:                                               ; preds = %1
  br label %14

14:                                               ; preds = %13, %7
  %15 = load ptr, ptr %2, align 8, !tbaa !55
  %16 = icmp ne ptr %15, null
  br i1 %16, label %17, label %19

17:                                               ; preds = %14
  %18 = load ptr, ptr %2, align 8, !tbaa !55
  call void @free(ptr noundef %18) #12
  store ptr null, ptr %2, align 8, !tbaa !55
  br label %20

19:                                               ; preds = %14
  br label %20

20:                                               ; preds = %19, %17
  ret void
}

; Function Attrs: inlinehint nounwind uwtable
define internal i32 @Gia_ManRegNum(ptr noundef %0) #3 {
  %2 = alloca ptr, align 8
  store ptr %0, ptr %2, align 8, !tbaa !3
  %3 = load ptr, ptr %2, align 8, !tbaa !3
  %4 = getelementptr inbounds nuw %struct.Gia_Man_t_, ptr %3, i32 0, i32 2
  %5 = load i32, ptr %4, align 8, !tbaa !71
  ret i32 %5
}

; Function Attrs: inlinehint nounwind uwtable
define internal i32 @Gia_ManAndNum(ptr noundef %0) #3 {
  %2 = alloca ptr, align 8
  store ptr %0, ptr %2, align 8, !tbaa !3
  %3 = load ptr, ptr %2, align 8, !tbaa !3
  %4 = getelementptr inbounds nuw %struct.Gia_Man_t_, ptr %3, i32 0, i32 4
  %5 = load i32, ptr %4, align 8, !tbaa !49
  %6 = load ptr, ptr %2, align 8, !tbaa !3
  %7 = getelementptr inbounds nuw %struct.Gia_Man_t_, ptr %6, i32 0, i32 11
  %8 = load ptr, ptr %7, align 8, !tbaa !69
  %9 = call i32 @Vec_IntSize(ptr noundef %8)
  %10 = sub nsw i32 %5, %9
  %11 = load ptr, ptr %2, align 8, !tbaa !3
  %12 = getelementptr inbounds nuw %struct.Gia_Man_t_, ptr %11, i32 0, i32 12
  %13 = load ptr, ptr %12, align 8, !tbaa !70
  %14 = call i32 @Vec_IntSize(ptr noundef %13)
  %15 = sub nsw i32 %10, %14
  %16 = sub nsw i32 %15, 1
  ret i32 %16
}

; Function Attrs: inlinehint nounwind uwtable
define internal void @Vec_IntFreeP(ptr noundef %0) #3 {
  %2 = alloca ptr, align 8
  store ptr %0, ptr %2, align 8, !tbaa !67
  %3 = load ptr, ptr %2, align 8, !tbaa !67
  %4 = load ptr, ptr %3, align 8, !tbaa !62
  %5 = icmp eq ptr %4, null
  br i1 %5, label %6, label %7

6:                                                ; preds = %1
  br label %32

7:                                                ; preds = %1
  %8 = load ptr, ptr %2, align 8, !tbaa !67
  %9 = load ptr, ptr %8, align 8, !tbaa !62
  %10 = getelementptr inbounds nuw %struct.Vec_Int_t_, ptr %9, i32 0, i32 2
  %11 = load ptr, ptr %10, align 8, !tbaa !64
  %12 = icmp ne ptr %11, null
  br i1 %12, label %13, label %21

13:                                               ; preds = %7
  %14 = load ptr, ptr %2, align 8, !tbaa !67
  %15 = load ptr, ptr %14, align 8, !tbaa !62
  %16 = getelementptr inbounds nuw %struct.Vec_Int_t_, ptr %15, i32 0, i32 2
  %17 = load ptr, ptr %16, align 8, !tbaa !64
  call void @free(ptr noundef %17) #12
  %18 = load ptr, ptr %2, align 8, !tbaa !67
  %19 = load ptr, ptr %18, align 8, !tbaa !62
  %20 = getelementptr inbounds nuw %struct.Vec_Int_t_, ptr %19, i32 0, i32 2
  store ptr null, ptr %20, align 8, !tbaa !64
  br label %22

21:                                               ; preds = %7
  br label %22

22:                                               ; preds = %21, %13
  %23 = load ptr, ptr %2, align 8, !tbaa !67
  %24 = load ptr, ptr %23, align 8, !tbaa !62
  %25 = icmp ne ptr %24, null
  br i1 %25, label %26, label %30

26:                                               ; preds = %22
  %27 = load ptr, ptr %2, align 8, !tbaa !67
  %28 = load ptr, ptr %27, align 8, !tbaa !62
  call void @free(ptr noundef %28) #12
  %29 = load ptr, ptr %2, align 8, !tbaa !67
  store ptr null, ptr %29, align 8, !tbaa !62
  br label %31

30:                                               ; preds = %22
  br label %31

31:                                               ; preds = %30, %26
  br label %32

32:                                               ; preds = %31, %6
  ret void
}

; Function Attrs: nounwind uwtable
define ptr @Shr_ManFree(ptr noundef %0) #0 {
  %2 = alloca ptr, align 8
  %3 = alloca ptr, align 8
  store ptr %0, ptr %2, align 8, !tbaa !8
  call void @llvm.lifetime.start.p0(i64 8, ptr %3) #12
  %4 = load ptr, ptr %2, align 8, !tbaa !8
  %5 = getelementptr inbounds nuw %struct.Shr_Man_t_, ptr %4, i32 0, i32 1
  %6 = load ptr, ptr %5, align 8, !tbaa !29
  call void @Gia_ManHashStop(ptr noundef %6)
  %7 = load ptr, ptr %2, align 8, !tbaa !8
  %8 = getelementptr inbounds nuw %struct.Shr_Man_t_, ptr %7, i32 0, i32 1
  %9 = load ptr, ptr %8, align 8, !tbaa !29
  %10 = getelementptr inbounds nuw %struct.Gia_Man_t_, ptr %9, i32 0, i32 21
  call void @Vec_IntFreeP(ptr noundef %10)
  %11 = load ptr, ptr %2, align 8, !tbaa !8
  %12 = getelementptr inbounds nuw %struct.Shr_Man_t_, ptr %11, i32 0, i32 1
  %13 = load ptr, ptr %12, align 8, !tbaa !29
  %14 = call i32 @Gia_ManHasDangling(ptr noundef %13)
  %15 = icmp ne i32 %14, 0
  br i1 %15, label %16, label %40

16:                                               ; preds = %1
  %17 = load ptr, ptr %2, align 8, !tbaa !8
  %18 = getelementptr inbounds nuw %struct.Shr_Man_t_, ptr %17, i32 0, i32 1
  %19 = load ptr, ptr %18, align 8, !tbaa !29
  store ptr %19, ptr %3, align 8, !tbaa !3
  %20 = call ptr @Gia_ManCleanup(ptr noundef %19)
  %21 = load ptr, ptr %2, align 8, !tbaa !8
  %22 = getelementptr inbounds nuw %struct.Shr_Man_t_, ptr %21, i32 0, i32 1
  store ptr %20, ptr %22, align 8, !tbaa !29
  %23 = load ptr, ptr %2, align 8, !tbaa !8
  %24 = getelementptr inbounds nuw %struct.Shr_Man_t_, ptr %23, i32 0, i32 1
  %25 = load ptr, ptr %24, align 8, !tbaa !29
  %26 = call i32 @Gia_ManAndNum(ptr noundef %25)
  %27 = load ptr, ptr %3, align 8, !tbaa !3
  %28 = call i32 @Gia_ManAndNum(ptr noundef %27)
  %29 = icmp ne i32 %26, %28
  br i1 %29, label %30, label %38

30:                                               ; preds = %16
  %31 = load ptr, ptr %3, align 8, !tbaa !3
  %32 = call i32 @Gia_ManAndNum(ptr noundef %31)
  %33 = load ptr, ptr %2, align 8, !tbaa !8
  %34 = getelementptr inbounds nuw %struct.Shr_Man_t_, ptr %33, i32 0, i32 1
  %35 = load ptr, ptr %34, align 8, !tbaa !29
  %36 = call i32 @Gia_ManAndNum(ptr noundef %35)
  %37 = call i32 (ptr, ...) @printf(ptr noundef @.str, i32 noundef %32, i32 noundef %36)
  br label %38

38:                                               ; preds = %30, %16
  %39 = load ptr, ptr %3, align 8, !tbaa !3
  call void @Gia_ManStop(ptr noundef %39)
  br label %40

40:                                               ; preds = %38, %1
  %41 = load ptr, ptr %2, align 8, !tbaa !8
  %42 = getelementptr inbounds nuw %struct.Shr_Man_t_, ptr %41, i32 0, i32 1
  %43 = load ptr, ptr %42, align 8, !tbaa !29
  %44 = load ptr, ptr %2, align 8, !tbaa !8
  %45 = getelementptr inbounds nuw %struct.Shr_Man_t_, ptr %44, i32 0, i32 0
  %46 = load ptr, ptr %45, align 8, !tbaa !20
  %47 = call i32 @Gia_ManRegNum(ptr noundef %46)
  call void @Gia_ManSetRegNum(ptr noundef %43, i32 noundef %47)
  %48 = load ptr, ptr %2, align 8, !tbaa !8
  %49 = getelementptr inbounds nuw %struct.Shr_Man_t_, ptr %48, i32 0, i32 1
  %50 = load ptr, ptr %49, align 8, !tbaa !29
  store ptr %50, ptr %3, align 8, !tbaa !3
  %51 = load ptr, ptr %2, align 8, !tbaa !8
  %52 = getelementptr inbounds nuw %struct.Shr_Man_t_, ptr %51, i32 0, i32 1
  store ptr null, ptr %52, align 8, !tbaa !29
  %53 = load ptr, ptr %2, align 8, !tbaa !8
  %54 = getelementptr inbounds nuw %struct.Shr_Man_t_, ptr %53, i32 0, i32 13
  %55 = load ptr, ptr %54, align 8, !tbaa !53
  call void @Rsb_ManFree(ptr noundef %55)
  %56 = load ptr, ptr %2, align 8, !tbaa !8
  %57 = getelementptr inbounds nuw %struct.Shr_Man_t_, ptr %56, i32 0, i32 14
  %58 = load ptr, ptr %57, align 8, !tbaa !52
  call void @Bdc_ManFree(ptr noundef %58)
  %59 = load ptr, ptr %2, align 8, !tbaa !8
  %60 = getelementptr inbounds nuw %struct.Shr_Man_t_, ptr %59, i32 0, i32 1
  call void @Gia_ManStopP(ptr noundef %60)
  %61 = load ptr, ptr %2, align 8, !tbaa !8
  %62 = getelementptr inbounds nuw %struct.Shr_Man_t_, ptr %61, i32 0, i32 4
  %63 = load ptr, ptr %62, align 8, !tbaa !21
  call void @Vec_WrdFree(ptr noundef %63)
  %64 = load ptr, ptr %2, align 8, !tbaa !8
  %65 = getelementptr inbounds nuw %struct.Shr_Man_t_, ptr %64, i32 0, i32 5
  %66 = load ptr, ptr %65, align 8, !tbaa !22
  call void @Vec_IntFree(ptr noundef %66)
  %67 = load ptr, ptr %2, align 8, !tbaa !8
  %68 = getelementptr inbounds nuw %struct.Shr_Man_t_, ptr %67, i32 0, i32 7
  %69 = load ptr, ptr %68, align 8, !tbaa !23
  call void @Vec_IntFree(ptr noundef %69)
  %70 = load ptr, ptr %2, align 8, !tbaa !8
  %71 = getelementptr inbounds nuw %struct.Shr_Man_t_, ptr %70, i32 0, i32 8
  %72 = load ptr, ptr %71, align 8, !tbaa !24
  call void @Vec_IntFree(ptr noundef %72)
  %73 = load ptr, ptr %2, align 8, !tbaa !8
  %74 = getelementptr inbounds nuw %struct.Shr_Man_t_, ptr %73, i32 0, i32 11
  %75 = load ptr, ptr %74, align 8, !tbaa !25
  call void @Vec_WrdFree(ptr noundef %75)
  %76 = load ptr, ptr %2, align 8, !tbaa !8
  %77 = getelementptr inbounds nuw %struct.Shr_Man_t_, ptr %76, i32 0, i32 12
  %78 = load ptr, ptr %77, align 8, !tbaa !26
  call void @Vec_WrdFree(ptr noundef %78)
  %79 = load ptr, ptr %2, align 8, !tbaa !8
  %80 = getelementptr inbounds nuw %struct.Shr_Man_t_, ptr %79, i32 0, i32 9
  %81 = load ptr, ptr %80, align 8, !tbaa !27
  call void @Vec_IntFree(ptr noundef %81)
  %82 = load ptr, ptr %2, align 8, !tbaa !8
  %83 = getelementptr inbounds nuw %struct.Shr_Man_t_, ptr %82, i32 0, i32 10
  %84 = load ptr, ptr %83, align 8, !tbaa !28
  call void @Vec_IntFree(ptr noundef %84)
  %85 = load ptr, ptr %2, align 8, !tbaa !8
  %86 = icmp ne ptr %85, null
  br i1 %86, label %87, label %89

87:                                               ; preds = %40
  %88 = load ptr, ptr %2, align 8, !tbaa !8
  call void @free(ptr noundef %88) #12
  store ptr null, ptr %2, align 8, !tbaa !8
  br label %90

89:                                               ; preds = %40
  br label %90

90:                                               ; preds = %89, %87
  %91 = load ptr, ptr %3, align 8, !tbaa !3
  call void @llvm.lifetime.end.p0(i64 8, ptr %3) #12
  ret ptr %91
}