; Function Attrs: nounwind uwtable
define ptr @Shr_ManFree(ptr noundef %0) local_unnamed_addr #0 {
  %2 = getelementptr inbounds nuw i8, ptr %0, i64 8
  %3 = load ptr, ptr %2, align 8, !tbaa !53
  tail call void @Gia_ManHashStop(ptr noundef %3) #20
  %4 = load ptr, ptr %2, align 8, !tbaa !53
  %5 = getelementptr inbounds nuw i8, ptr %4, i64 160
  %6 = load ptr, ptr %5, align 8, !tbaa !60
  %7 = icmp eq ptr %6, null
  br i1 %7, label %Vec_IntFreeP.exit, label %8

8:                                                ; preds = %1
  %9 = getelementptr inbounds nuw i8, ptr %6, i64 8
  %10 = load ptr, ptr %9, align 8, !tbaa !44
  %.not.i = icmp eq ptr %10, null
  br i1 %.not.i, label %13, label %.thread.i

.thread.i:                                        ; preds = %8
  tail call void @free(ptr noundef nonnull %10) #20
  %11 = load ptr, ptr %5, align 8, !tbaa !60
  %12 = getelementptr inbounds nuw i8, ptr %11, i64 8
  store ptr null, ptr %12, align 8, !tbaa !44
  br label %13

13:                                               ; preds = %.thread.i, %8
  %14 = phi ptr [ %11, %.thread.i ], [ %6, %8 ]
  tail call void @free(ptr noundef nonnull %14) #20
  store ptr null, ptr %5, align 8, !tbaa !60
  %.pre = load ptr, ptr %2, align 8, !tbaa !53
  br label %Vec_IntFreeP.exit

Vec_IntFreeP.exit:                                ; preds = %1, %13
  %15 = phi ptr [ %4, %1 ], [ %.pre, %13 ]
  %16 = tail call i32 @Gia_ManHasDangling(ptr noundef %15) #20
  %.not = icmp eq i32 %16, 0
  br i1 %.not, label %45, label %17

17:                                               ; preds = %Vec_IntFreeP.exit
  %18 = load ptr, ptr %2, align 8, !tbaa !53
  %19 = tail call ptr @Gia_ManCleanup(ptr noundef %18) #20
  store ptr %19, ptr %2, align 8, !tbaa !53
  %20 = getelementptr inbounds nuw i8, ptr %19, i64 24
  %21 = load i32, ptr %20, align 8, !tbaa !16
  %22 = getelementptr inbounds nuw i8, ptr %19, i64 64
  %23 = load ptr, ptr %22, align 8, !tbaa !61
  %24 = getelementptr i8, ptr %23, i64 4
  %.val.i = load i32, ptr %24, align 4, !tbaa !45
  %25 = getelementptr inbounds nuw i8, ptr %19, i64 72
  %26 = load ptr, ptr %25, align 8, !tbaa !62
  %27 = getelementptr i8, ptr %26, i64 4
  %.val3.i = load i32, ptr %27, align 4, !tbaa !45
  %28 = add i32 %.val3.i, %.val.i
  %29 = xor i32 %28, -1
  %30 = add i32 %21, %29
  %31 = getelementptr inbounds nuw i8, ptr %18, i64 24
  %32 = load i32, ptr %31, align 8, !tbaa !16
  %33 = getelementptr inbounds nuw i8, ptr %18, i64 64
  %34 = load ptr, ptr %33, align 8, !tbaa !61
  %35 = getelementptr i8, ptr %34, i64 4
  %.val.i29 = load i32, ptr %35, align 4, !tbaa !45
  %36 = getelementptr inbounds nuw i8, ptr %18, i64 72
  %37 = load ptr, ptr %36, align 8, !tbaa !62
  %38 = getelementptr i8, ptr %37, i64 4
  %.val3.i30 = load i32, ptr %38, align 4, !tbaa !45
  %39 = add i32 %.val3.i30, %.val.i29
  %40 = xor i32 %39, -1
  %41 = add i32 %32, %40
  %.not28 = icmp eq i32 %30, %41
  br i1 %.not28, label %44, label %42

42:                                               ; preds = %17
  %43 = tail call i32 (ptr, ...) @printf(ptr noundef nonnull dereferenceable(1) @.str, i32 noundef %41, i32 noundef %30)
  br label %44

44:                                               ; preds = %42, %17
  tail call void @Gia_ManStop(ptr noundef nonnull %18) #20
  br label %45

45:                                               ; preds = %44, %Vec_IntFreeP.exit
  %46 = load ptr, ptr %2, align 8, !tbaa !53
  %47 = load ptr, ptr %0, align 8, !tbaa !35
  %48 = getelementptr i8, ptr %47, i64 16
  %.val = load i32, ptr %48, align 8, !tbaa !63
  tail call void @Gia_ManSetRegNum(ptr noundef %46, i32 noundef %.val) #20
  %49 = load ptr, ptr %2, align 8, !tbaa !53
  store ptr null, ptr %2, align 8, !tbaa !53
  %50 = getelementptr inbounds nuw i8, ptr %0, i64 96
  %51 = load ptr, ptr %50, align 8, !tbaa !59
  tail call void @Rsb_ManFree(ptr noundef %51) #20
  %52 = getelementptr inbounds nuw i8, ptr %0, i64 104
  %53 = load ptr, ptr %52, align 8, !tbaa !58
  tail call void @Bdc_ManFree(ptr noundef %53) #20
  tail call void @Gia_ManStopP(ptr noundef nonnull %2) #20
  %54 = getelementptr inbounds nuw i8, ptr %0, i64 24
  %55 = load ptr, ptr %54, align 8, !tbaa !40
  %56 = getelementptr inbounds nuw i8, ptr %55, i64 8
  %57 = load ptr, ptr %56, align 8, !tbaa !39
  %.not.i35 = icmp eq ptr %57, null
  br i1 %.not.i35, label %Vec_WrdFree.exit, label %58

58:                                               ; preds = %45
  tail call void @free(ptr noundef nonnull %57) #20
  br label %Vec_WrdFree.exit

Vec_WrdFree.exit:                                 ; preds = %45, %58
  tail call void @free(ptr noundef nonnull %55) #20
  %59 = getelementptr inbounds nuw i8, ptr %0, i64 32
  %60 = load ptr, ptr %59, align 8, !tbaa !46
  %61 = getelementptr inbounds nuw i8, ptr %60, i64 8
  %62 = load ptr, ptr %61, align 8, !tbaa !44
  %.not.i36 = icmp eq ptr %62, null
  br i1 %.not.i36, label %Vec_IntFree.exit, label %63

63:                                               ; preds = %Vec_WrdFree.exit
  tail call void @free(ptr noundef nonnull %62) #20
  br label %Vec_IntFree.exit

Vec_IntFree.exit:                                 ; preds = %Vec_WrdFree.exit, %63
  tail call void @free(ptr noundef nonnull %60) #20
  %64 = getelementptr inbounds nuw i8, ptr %0, i64 48
  %65 = load ptr, ptr %64, align 8, !tbaa !47
  %66 = getelementptr inbounds nuw i8, ptr %65, i64 8
  %67 = load ptr, ptr %66, align 8, !tbaa !44
  %.not.i37 = icmp eq ptr %67, null
  br i1 %.not.i37, label %Vec_IntFree.exit38, label %68

68:                                               ; preds = %Vec_IntFree.exit
  tail call void @free(ptr noundef nonnull %67) #20
  br label %Vec_IntFree.exit38

Vec_IntFree.exit38:                               ; preds = %Vec_IntFree.exit, %68
  tail call void @free(ptr noundef nonnull %65) #20
  %69 = getelementptr inbounds nuw i8, ptr %0, i64 56
  %70 = load ptr, ptr %69, align 8, !tbaa !48
  %71 = getelementptr inbounds nuw i8, ptr %70, i64 8
  %72 = load ptr, ptr %71, align 8, !tbaa !44
  %.not.i39 = icmp eq ptr %72, null
  br i1 %.not.i39, label %Vec_IntFree.exit40, label %73

73:                                               ; preds = %Vec_IntFree.exit38
  tail call void @free(ptr noundef nonnull %72) #20
  br label %Vec_IntFree.exit40

Vec_IntFree.exit40:                               ; preds = %Vec_IntFree.exit38, %73
  tail call void @free(ptr noundef nonnull %70) #20
  %74 = getelementptr inbounds nuw i8, ptr %0, i64 80
  %75 = load ptr, ptr %74, align 8, !tbaa !49
  %76 = getelementptr inbounds nuw i8, ptr %75, i64 8
  %77 = load ptr, ptr %76, align 8, !tbaa !39
  %.not.i41 = icmp eq ptr %77, null
  br i1 %.not.i41, label %Vec_WrdFree.exit42, label %78

78:                                               ; preds = %Vec_IntFree.exit40
  tail call void @free(ptr noundef nonnull %77) #20
  br label %Vec_WrdFree.exit42

Vec_WrdFree.exit42:                               ; preds = %Vec_IntFree.exit40, %78
  tail call void @free(ptr noundef nonnull %75) #20
  %79 = getelementptr inbounds nuw i8, ptr %0, i64 88
  %80 = load ptr, ptr %79, align 8, !tbaa !50
  %81 = getelementptr inbounds nuw i8, ptr %80, i64 8
  %82 = load ptr, ptr %81, align 8, !tbaa !39
  %.not.i43 = icmp eq ptr %82, null
  br i1 %.not.i43, label %Vec_WrdFree.exit44, label %83

83:                                               ; preds = %Vec_WrdFree.exit42
  tail call void @free(ptr noundef nonnull %82) #20
  br label %Vec_WrdFree.exit44

Vec_WrdFree.exit44:                               ; preds = %Vec_WrdFree.exit42, %83
  tail call void @free(ptr noundef nonnull %80) #20
  %84 = getelementptr inbounds nuw i8, ptr %0, i64 64
  %85 = load ptr, ptr %84, align 8, !tbaa !51
  %86 = getelementptr inbounds nuw i8, ptr %85, i64 8
  %87 = load ptr, ptr %86, align 8, !tbaa !44
  %.not.i45 = icmp eq ptr %87, null
  br i1 %.not.i45, label %Vec_IntFree.exit46, label %88

88:                                               ; preds = %Vec_WrdFree.exit44
  tail call void @free(ptr noundef nonnull %87) #20
  br label %Vec_IntFree.exit46

Vec_IntFree.exit46:                               ; preds = %Vec_WrdFree.exit44, %88
  tail call void @free(ptr noundef nonnull %85) #20
  %89 = getelementptr inbounds nuw i8, ptr %0, i64 72
  %90 = load ptr, ptr %89, align 8, !tbaa !52
  %91 = getelementptr inbounds nuw i8, ptr %90, i64 8
  %92 = load ptr, ptr %91, align 8, !tbaa !44
  %.not.i47 = icmp eq ptr %92, null
  br i1 %.not.i47, label %Vec_IntFree.exit48, label %93

93:                                               ; preds = %Vec_IntFree.exit46
  tail call void @free(ptr noundef nonnull %92) #20
  br label %Vec_IntFree.exit48

Vec_IntFree.exit48:                               ; preds = %Vec_IntFree.exit46, %93
  tail call void @free(ptr noundef nonnull %90) #20
  tail call void @free(ptr noundef nonnull %0) #20
  ret ptr %49
}